target datalayout = "e-m:e-p270:32:32-p271:32:32-p272:64:64-i64:64-i128:128-f80:128-n8:16:32:64-S128"
target triple = "x86_64-pc-linux-gnu"

%"class.clang::SourceLocation" = type { i32 }
%"class.clang::Parser" = type { %"class.clang::CodeCompletionHandler", ptr, %"class.clang::Token", %"class.clang::SourceLocation", %"class.clang::PreferredTypeBuilder", i16, i16, i16, i16, ptr, ptr, i32, [16 x ptr], ptr, ptr, ptr, ptr, ptr, ptr, ptr, ptr, ptr, ptr, ptr, ptr, ptr, ptr, ptr, ptr, ptr, ptr, ptr, ptr, ptr, ptr, ptr, ptr, ptr, ptr, ptr, ptr, ptr, ptr, ptr, ptr, ptr, ptr, ptr, %"class.llvm::SmallDenseMap", %"class.std::unique_ptr", %"class.std::unique_ptr", %"class.std::unique_ptr", %"class.std::unique_ptr", %"class.std::unique_ptr", %"class.std::unique_ptr", %"class.std::unique_ptr", %"class.std::unique_ptr", %"class.std::unique_ptr", %"class.std::unique_ptr", %"class.std::unique_ptr", %"class.std::unique_ptr", %"class.std::unique_ptr", %"class.std::unique_ptr", %"class.std::unique_ptr", %"class.std::unique_ptr", %"class.std::unique_ptr", %"class.std::unique_ptr", %"class.std::unique_ptr", %"class.std::unique_ptr", %"class.std::unique_ptr", %"class.std::unique_ptr", %"class.std::unique_ptr", %"class.std::unique_ptr", %"class.std::unique_ptr", %"class.std::unique_ptr", %"class.std::unique_ptr", %"class.std::unique_ptr", %"class.std::unique_ptr", %"class.std::unique_ptr", %"class.std::unique_ptr", %"class.std::unique_ptr", %"class.std::unique_ptr", %"class.std::unique_ptr", %"class.std::unique_ptr", %"class.std::unique_ptr", %"class.std::unique_ptr", %"class.std::unique_ptr", %"class.std::unique_ptr", %"class.std::unique_ptr", %"class.std::unique_ptr", %"class.std::unique_ptr", %"class.std::unique_ptr", %"class.std::unique_ptr", %"class.std::unique_ptr", %"class.std::unique_ptr", %"class.std::unique_ptr", %"class.std::unique_ptr", %"class.std::unique_ptr.4", i8, i8, i8, i8, i8, i8, i8, i32, i32, i32, %"class.clang::AttributeFactory", %"class.llvm::SmallVector.23", i8, %"class.llvm::SmallVector.28", %"struct.clang::Parser::AngleBracketTracker", i8, i8, %"class.clang::SourceLocation", %"class.clang::SourceLocation", %"class.std::stack", ptr, [9 x ptr] }
%"class.clang::CodeCompletionHandler" = type { ptr }
%"class.clang::Token" = type <{ i32, i32, ptr, i16, i16, [4 x i8] }>
%"class.clang::PreferredTypeBuilder" = type { i8, %"class.clang::SourceLocation", %"class.clang::QualType", %"class.llvm::function_ref" }
%"class.clang::QualType" = type { %"class.llvm::PointerIntPair.0" }
%"class.llvm::PointerIntPair.0" = type { %"struct.llvm::detail::PunnedPointer.1" }
%"struct.llvm::detail::PunnedPointer.1" = type { [8 x i8] }
%"class.llvm::function_ref" = type { ptr, i64 }
%"class.llvm::SmallDenseMap" = type { i32, i32, %"struct.llvm::AlignedCharArrayUnion" }
%"struct.llvm::AlignedCharArrayUnion" = type { [64 x i8] }
%"class.std::unique_ptr" = type { %"struct.std::__uniq_ptr_data" }
%"struct.std::__uniq_ptr_data" = type { %"class.std::__uniq_ptr_impl" }
%"class.std::__uniq_ptr_impl" = type { %"class.std::tuple" }
%"class.std::tuple" = type { %"struct.std::_Tuple_impl" }
%"struct.std::_Tuple_impl" = type { %"struct.std::_Head_base.3" }
%"struct.std::_Head_base.3" = type { ptr }
%"class.std::unique_ptr.4" = type { %"struct.std::__uniq_ptr_data.5" }
%"struct.std::__uniq_ptr_data.5" = type { %"class.std::__uniq_ptr_impl.6" }
%"class.std::__uniq_ptr_impl.6" = type { %"class.std::tuple.7" }
%"class.std::tuple.7" = type { %"struct.std::_Tuple_impl.8" }
%"struct.std::_Tuple_impl.8" = type { %"struct.std::_Head_base.11" }
%"struct.std::_Head_base.11" = type { ptr }
%"class.clang::AttributeFactory" = type { %"class.llvm::BumpPtrAllocatorImpl", %"class.llvm::SmallVector.18" }
%"class.llvm::BumpPtrAllocatorImpl" = type { ptr, ptr, %"class.llvm::SmallVector", %"class.llvm::SmallVector.13", i64, i64 }
%"class.llvm::SmallVector" = type { %"class.llvm::SmallVectorImpl", %"struct.llvm::SmallVectorStorage" }
%"class.llvm::SmallVectorImpl" = type { %"class.llvm::SmallVectorTemplateBase" }
%"class.llvm::SmallVectorTemplateBase" = type { %"class.llvm::SmallVectorTemplateCommon" }
%"class.llvm::SmallVectorTemplateCommon" = type { %"class.llvm::SmallVectorBase" }
%"class.llvm::SmallVectorBase" = type { ptr, i32, i32 }
%"struct.llvm::SmallVectorStorage" = type { [32 x i8] }
%"class.llvm::SmallVector.13" = type { %"class.llvm::SmallVectorImpl.14" }
%"class.llvm::SmallVectorImpl.14" = type { %"class.llvm::SmallVectorTemplateBase.15" }
%"class.llvm::SmallVectorTemplateBase.15" = type { %"class.llvm::SmallVectorTemplateCommon.16" }
%"class.llvm::SmallVectorTemplateCommon.16" = type { %"class.llvm::SmallVectorBase" }
%"class.llvm::SmallVector.18" = type { %"class.llvm::SmallVectorImpl.19", %"struct.llvm::SmallVectorStorage.22" }
%"class.llvm::SmallVectorImpl.19" = type { %"class.llvm::SmallVectorTemplateBase.20" }
%"class.llvm::SmallVectorTemplateBase.20" = type { %"class.llvm::SmallVectorTemplateCommon.21" }
%"class.llvm::SmallVectorTemplateCommon.21" = type { %"class.llvm::SmallVectorBase" }
%"struct.llvm::SmallVectorStorage.22" = type { [1200 x i8] }
%"class.llvm::SmallVector.23" = type { %"class.llvm::SmallVectorImpl.24", %"struct.llvm::SmallVectorStorage.27" }
%"class.llvm::SmallVectorImpl.24" = type { %"class.llvm::SmallVectorTemplateBase.25" }
%"class.llvm::SmallVectorTemplateBase.25" = type { %"class.llvm::SmallVectorTemplateCommon.26" }
%"class.llvm::SmallVectorTemplateCommon.26" = type { %"class.llvm::SmallVectorBase" }
%"struct.llvm::SmallVectorStorage.27" = type { [128 x i8] }
%"class.llvm::SmallVector.28" = type { %"class.llvm::SmallVectorImpl.29", %"struct.llvm::SmallVectorStorage.32" }
%"class.llvm::SmallVectorImpl.29" = type { %"class.llvm::SmallVectorTemplateBase.30" }
%"class.llvm::SmallVectorTemplateBase.30" = type { %"class.llvm::SmallVectorTemplateCommon.31" }
%"class.llvm::SmallVectorTemplateCommon.31" = type { %"class.llvm::SmallVectorBase" }
%"struct.llvm::SmallVectorStorage.32" = type { [64 x i8] }
%"struct.clang::Parser::AngleBracketTracker" = type { %"class.llvm::SmallVector.33" }
%"class.llvm::SmallVector.33" = type { %"class.llvm::SmallVectorImpl.34", %"struct.llvm::SmallVectorStorage.37" }
%"class.llvm::SmallVectorImpl.34" = type { %"class.llvm::SmallVectorTemplateBase.35" }
%"class.llvm::SmallVectorTemplateBase.35" = type { %"class.llvm::SmallVectorTemplateCommon.36" }
%"class.llvm::SmallVectorTemplateCommon.36" = type { %"class.llvm::SmallVectorBase" }
%"struct.llvm::SmallVectorStorage.37" = type { [192 x i8] }
%"class.std::stack" = type { %"class.std::deque" }
%"class.std::deque" = type { %"class.std::_Deque_base" }
%"class.std::_Deque_base" = type { %"struct.std::_Deque_base<clang::Parser::ParsingClass *, std::allocator<clang::Parser::ParsingClass *>>::_Deque_impl" }
%"struct.std::_Deque_base<clang::Parser::ParsingClass *, std::allocator<clang::Parser::ParsingClass *>>::_Deque_impl" = type { %"struct.std::_Deque_base<clang::Parser::ParsingClass *, std::allocator<clang::Parser::ParsingClass *>>::_Deque_impl_data" }
%"struct.std::_Deque_base<clang::Parser::ParsingClass *, std::allocator<clang::Parser::ParsingClass *>>::_Deque_impl_data" = type { ptr, i64, %"struct.std::_Deque_iterator", %"struct.std::_Deque_iterator" }
%"struct.std::_Deque_iterator" = type { ptr, ptr, ptr, ptr }
%"class.llvm::StringRef" = type { ptr, i64 }
%"class.llvm::ArrayRef.943" = type { ptr, i64 }

@.str = private unnamed_addr constant [1 x i8] zeroinitializer, align 1

; Function Attrs: mustprogress nounwind uwtable
define linkonce_odr hidden noundef i64 @_ZNSt11char_traitsIcE6lengthEPKc(ptr noundef %0) #0 comdat align 2 {
  %2 = alloca ptr, align 8
  store ptr %0, ptr %2, align 8
  %3 = load ptr, ptr %2, align 8
  %4 = call i64 @strlen(ptr noundef %3) #10
  ret i64 %4
}

; Function Attrs: mustprogress nounwind uwtable
define linkonce_odr hidden noundef zeroext i1 @_ZNK5clang5Token2isENS_3tok9TokenKindE(ptr noundef nonnull align 8 dereferenceable(20) %0, i16 noundef zeroext %1) #0 comdat align 2 {
  %3 = alloca ptr, align 8
  %4 = alloca i16, align 2
  store ptr %0, ptr %3, align 8
  store i16 %1, ptr %4, align 2
  %5 = load ptr, ptr %3, align 8
  %6 = getelementptr inbounds nuw %"class.clang::Token", ptr %5, i32 0, i32 3
  %7 = load i16, ptr %6, align 8
  %8 = zext i16 %7 to i32
  %9 = load i16, ptr %4, align 2
  %10 = zext i16 %9 to i32
  %11 = icmp eq i32 %8, %10
  ret i1 %11
}

; Function Attrs: mustprogress nounwind uwtable
define linkonce_odr hidden void @_ZN4llvm8ArrayRefIN5clang3tok9TokenKindEEC2ILm2EEERAT__KS3_(ptr noundef nonnull align 8 dereferenceable(16) %0, ptr noundef nonnull align 2 dereferenceable(4) %1) unnamed_addr #0 comdat align 2 {
  %3 = alloca ptr, align 8
  %4 = alloca ptr, align 8
  store ptr %0, ptr %3, align 8
  store ptr %1, ptr %4, align 8
  %5 = load ptr, ptr %3, align 8
  %6 = getelementptr inbounds nuw %"class.llvm::ArrayRef.943", ptr %5, i32 0, i32 0
  %7 = load ptr, ptr %4, align 8
  %8 = getelementptr inbounds [2 x i16], ptr %7, i64 0, i64 0
  store ptr %8, ptr %6, align 8
  %9 = getelementptr inbounds nuw %"class.llvm::ArrayRef.943", ptr %5, i32 0, i32 1
  store i64 2, ptr %9, align 8
  ret void
}

; Function Attrs: mustprogress nounwind uwtable
define linkonce_odr hidden void @_ZN4llvm9StringRefC2EPKc(ptr noundef nonnull align 8 dereferenceable(16) %0, ptr noundef %1) unnamed_addr #0 comdat align 2 {
  %3 = alloca ptr, align 8
  %4 = alloca ptr, align 8
  store ptr %0, ptr %3, align 8
  store ptr %1, ptr %4, align 8
  %5 = load ptr, ptr %3, align 8
  %6 = getelementptr inbounds nuw %"class.llvm::StringRef", ptr %5, i32 0, i32 0
  %7 = load ptr, ptr %4, align 8
  store ptr %7, ptr %6, align 8
  %8 = getelementptr inbounds nuw %"class.llvm::StringRef", ptr %5, i32 0, i32 1
  %9 = load ptr, ptr %4, align 8
  %10 = icmp ne ptr %9, null
  br i1 %10, label %11, label %14

11:                                               ; preds = %2
  %12 = load ptr, ptr %4, align 8
  %13 = call noundef i64 @_ZNSt11char_traitsIcE6lengthEPKc(ptr noundef %12)
  br label %15

14:                                               ; preds = %2
  br label %15

15:                                               ; preds = %14, %11
  %16 = phi i64 [ %13, %11 ], [ 0, %14 ]
  store i64 %16, ptr %8, align 8
  ret void
}

; Function Attrs: mustprogress nounwind uwtable
define linkonce_odr hidden noundef zeroext i1 @_ZNK5clang5Token7isOneOfENS_3tok9TokenKindES2_(ptr noundef nonnull align 8 dereferenceable(20) %0, i16 noundef zeroext %1, i16 noundef zeroext %2) #0 comdat align 2 {
  %4 = alloca ptr, align 8
  %5 = alloca i16, align 2
  %6 = alloca i16, align 2
  store ptr %0, ptr %4, align 8
  store i16 %1, ptr %5, align 2
  store i16 %2, ptr %6, align 2
  %7 = load ptr, ptr %4, align 8
  %8 = load i16, ptr %5, align 2
  %9 = call noundef zeroext i1 @_ZNK5clang5Token2isENS_3tok9TokenKindE(ptr noundef nonnull align 8 dereferenceable(20) %7, i16 noundef zeroext %8)
  br i1 %9, label %13, label %10

10:                                               ; preds = %3
  %11 = load i16, ptr %6, align 2
  %12 = call noundef zeroext i1 @_ZNK5clang5Token2isENS_3tok9TokenKindE(ptr noundef nonnull align 8 dereferenceable(20) %7, i16 noundef zeroext %11)
  br label %13

13:                                               ; preds = %10, %3
  %14 = phi i1 [ true, %3 ], [ %12, %10 ]
  ret i1 %14
}

; Function Attrs: mustprogress nounwind uwtable
define linkonce_odr hidden noundef nonnull align 8 dereferenceable(20) ptr @_ZNK5clang6Parser11getCurTokenEv(ptr noundef nonnull align 8 dereferenceable(2936) %0) #0 comdat align 2 {
  %2 = alloca ptr, align 8
  store ptr %0, ptr %2, align 8
  %3 = load ptr, ptr %2, align 8
  %4 = getelementptr inbounds nuw %"class.clang::Parser", ptr %3, i32 0, i32 2
  ret ptr %4
}

; Function Attrs: mustprogress nounwind uwtable
define linkonce_odr hidden noundef zeroext i1 @_ZN5clang6Parser9SkipUntilENS_3tok9TokenKindES2_NS0_14SkipUntilFlagsE(ptr noundef nonnull align 8 dereferenceable(2936) %0, i16 noundef zeroext %1, i16 noundef zeroext %2, i32 noundef %3) #0 comdat align 2 {
  %5 = alloca ptr, align 8
  %6 = alloca i16, align 2
  %7 = alloca i16, align 2
  %8 = alloca i32, align 4
  %9 = alloca [2 x i16], align 2
  %10 = alloca %"class.llvm::ArrayRef.943", align 8
  store ptr %0, ptr %5, align 8
  store i16 %1, ptr %6, align 2
  store i16 %2, ptr %7, align 2
  store i32 %3, ptr %8, align 4
  %11 = load ptr, ptr %5, align 8
  %12 = load i16, ptr %6, align 2
  store i16 %12, ptr %9, align 2
  %13 = getelementptr inbounds i16, ptr %9, i64 1
  %14 = load i16, ptr %7, align 2
  store i16 %14, ptr %13, align 2
  call void @_ZN4llvm8ArrayRefIN5clang3tok9TokenKindEEC2ILm2EEERAT__KS3_(ptr noundef nonnull align 8 dereferenceable(16) %10, ptr noundef nonnull align 2 dereferenceable(4) %9)
  %15 = load i32, ptr %8, align 4
  %16 = getelementptr inbounds nuw { ptr, i64 }, ptr %10, i32 0, i32 0
  %17 = load ptr, ptr %16, align 8
  %18 = getelementptr inbounds nuw { ptr, i64 }, ptr %10, i32 0, i32 1
  %19 = load i64, ptr %18, align 8
  %20 = call noundef zeroext i1 @_ZN5clang6Parser9SkipUntilEN4llvm8ArrayRefINS_3tok9TokenKindEEENS0_14SkipUntilFlagsE(ptr noundef nonnull align 8 dereferenceable(2936) %11, ptr %17, i64 %19, i32 noundef %15)
  ret i1 %20
}

; Function Attrs: mustprogress nounwind uwtable
define dso_local noundef zeroext i1 @_ZN5clang6Parser23ParseOpenACCGangArgListENS_14SourceLocationE(ptr noundef nonnull align 8 dereferenceable(2936) %0, i32 %1) #0 align 2 {
  %3 = alloca i1, align 1
  %4 = alloca %"class.clang::SourceLocation", align 4
  %5 = alloca ptr, align 8
  %6 = alloca %"class.clang::SourceLocation", align 4
  %7 = alloca %"class.llvm::StringRef", align 8
  %8 = alloca %"class.clang::SourceLocation", align 4
  %9 = getelementptr inbounds nuw %"class.clang::SourceLocation", ptr %4, i32 0, i32 0
  store i32 %1, ptr %9, align 4
  store ptr %0, ptr %5, align 8
  %10 = load ptr, ptr %5, align 8
  call void @llvm.memcpy.p0.p0.i64(ptr align 4 %6, ptr align 4 %4, i64 4, i1 false)
  %11 = getelementptr inbounds nuw %"class.clang::SourceLocation", ptr %6, i32 0, i32 0
  %12 = load i32, ptr %11, align 4
  %13 = call noundef zeroext i1 @_ZN5clang6Parser19ParseOpenACCGangArgENS_14SourceLocationE(ptr noundef nonnull align 8 dereferenceable(2936) %10, i32 %12)
  br i1 %13, label %14, label %16

14:                                               ; preds = %2
  %15 = call noundef zeroext i1 @_ZN5clang6Parser9SkipUntilENS_3tok9TokenKindES2_NS0_14SkipUntilFlagsE(ptr noundef nonnull align 8 dereferenceable(2936) %10, i16 noundef zeroext 23, i16 noundef zeroext 446, i32 noundef 2)
  store i1 false, ptr %3, align 1
  br label %34

16:                                               ; preds = %2
  br label %17

17:                                               ; preds = %32, %16
  %18 = call noundef nonnull align 8 dereferenceable(20) ptr @_ZNK5clang6Parser11getCurTokenEv(ptr noundef nonnull align 8 dereferenceable(2936) %10)
  %19 = call noundef zeroext i1 @_ZNK5clang5Token7isOneOfENS_3tok9TokenKindES2_(ptr noundef nonnull align 8 dereferenceable(20) %18, i16 noundef zeroext 23, i16 noundef zeroext 446)
  %20 = xor i1 %19, true
  br i1 %20, label %21, label %33

21:                                               ; preds = %17
  call void @_ZN4llvm9StringRefC2EPKc(ptr noundef nonnull align 8 dereferenceable(16) %7, ptr noundef @.str)
  %22 = getelementptr inbounds nuw { ptr, i64 }, ptr %7, i32 0, i32 0
  %23 = load ptr, ptr %22, align 8
  %24 = getelementptr inbounds nuw { ptr, i64 }, ptr %7, i32 0, i32 1
  %25 = load i64, ptr %24, align 8
  %26 = call noundef zeroext i1 @_ZN5clang6Parser16ExpectAndConsumeENS_3tok9TokenKindEjN4llvm9StringRefE(ptr noundef nonnull align 8 dereferenceable(2936) %10, i16 noundef zeroext 66, i32 noundef 15, ptr %23, i64 %25)
  call void @llvm.memcpy.p0.p0.i64(ptr align 4 %8, ptr align 4 %4, i64 4, i1 false)
  %27 = getelementptr inbounds nuw %"class.clang::SourceLocation", ptr %8, i32 0, i32 0
  %28 = load i32, ptr %27, align 4
  %29 = call noundef zeroext i1 @_ZN5clang6Parser19ParseOpenACCGangArgENS_14SourceLocationE(ptr noundef nonnull align 8 dereferenceable(2936) %10, i32 %28)
  br i1 %29, label %30, label %32

30:                                               ; preds = %21
  %31 = call noundef zeroext i1 @_ZN5clang6Parser9SkipUntilENS_3tok9TokenKindES2_NS0_14SkipUntilFlagsE(ptr noundef nonnull align 8 dereferenceable(2936) %10, i16 noundef zeroext 23, i16 noundef zeroext 446, i32 noundef 2)
  store i1 false, ptr %3, align 1
  br label %34

32:                                               ; preds = %21
  br label %17, !llvm.loop !10

33:                                               ; preds = %17
  store i1 false, ptr %3, align 1
  br label %34

34:                                               ; preds = %33, %30, %14
  %35 = load i1, ptr %3, align 1
  ret i1 %35
}