; Function Attrs: mustprogress nounwind uwtable
define dso_local noundef zeroext i1 @_ZN5clang6Parser23ParseOpenACCGangArgListENS_14SourceLocationE(ptr noundef nonnull align 8 dereferenceable(2936) %0, i32 %1) local_unnamed_addr #1 align 2 {
  %3 = alloca [2 x i16], align 2
  %4 = alloca [2 x i16], align 2
  %5 = tail call noundef zeroext i1 @_ZN5clang6Parser19ParseOpenACCGangArgENS_14SourceLocationE(ptr noundef nonnull align 8 dereferenceable(2936) %0, i32 %1)
  br i1 %5, label %7, label %.preheader

.preheader:                                       ; preds = %2
  %6 = getelementptr inbounds i8, ptr %0, i64 32
  br label %10

7:                                                ; preds = %2
  call void @llvm.lifetime.start.p0(i64 4, ptr nonnull %4)
  store i16 23, ptr %4, align 2
  %8 = getelementptr inbounds i8, ptr %4, i64 2
  store i16 446, ptr %8, align 2
  %9 = call noundef zeroext i1 @_ZN5clang6Parser9SkipUntilEN4llvm8ArrayRefINS_3tok9TokenKindEEENS0_14SkipUntilFlagsE(ptr noundef nonnull align 8 dereferenceable(2936) %0, ptr nonnull %4, i64 2, i32 noundef 2) #13
  call void @llvm.lifetime.end.p0(i64 4, ptr nonnull %4)
  br label %.loopexit

10:                                               ; preds = %.preheader, %12
  %11 = load i16, ptr %6, align 8
  switch i16 %11, label %12 [
    i16 446, label %.loopexit
    i16 23, label %.loopexit
  ]

12:                                               ; preds = %10
  %13 = tail call noundef zeroext i1 @_ZN5clang6Parser16ExpectAndConsumeENS_3tok9TokenKindEjN4llvm9StringRefE(ptr noundef nonnull align 8 dereferenceable(2936) %0, i16 noundef zeroext 66, i32 noundef 15, ptr nonnull @.str, i64 0) #13
  %14 = tail call noundef zeroext i1 @_ZN5clang6Parser19ParseOpenACCGangArgENS_14SourceLocationE(ptr noundef nonnull align 8 dereferenceable(2936) %0, i32 %1)
  br i1 %14, label %15, label %10, !llvm.loop !10

15:                                               ; preds = %12
  call void @llvm.lifetime.start.p0(i64 4, ptr nonnull %3)
  store i16 23, ptr %3, align 2
  %16 = getelementptr inbounds i8, ptr %3, i64 2
  store i16 446, ptr %16, align 2
  %17 = call noundef zeroext i1 @_ZN5clang6Parser9SkipUntilEN4llvm8ArrayRefINS_3tok9TokenKindEEENS0_14SkipUntilFlagsE(ptr noundef nonnull align 8 dereferenceable(2936) %0, ptr nonnull %3, i64 2, i32 noundef 2) #13
  call void @llvm.lifetime.end.p0(i64 4, ptr nonnull %3)
  br label %.loopexit

.loopexit:                                        ; preds = %10, %10, %15, %7
  ret i1 false
}